target datalayout = "e-m:e-p270:32:32-p271:32:32-p272:64:64-i64:64-i128:128-f80:128-n8:16:32:64-S128"
target triple = "x86_64-pc-linux-gnu"

@cqich_id_size = external global i32, align 4
@hf_ulmap_reserved_uint = internal global i32 0, align 4
@hf_ulmap_reserved = internal global i32 0, align 4
@hf_ulmap_anchor_bs_switch_extended_2_uiuc = internal global i32 0, align 4
@hf_ulmap_anchor_bs_switch_length = internal global i32 0, align 4
@hf_ulmap_anchor_bs_switch_n_anchor_bs_switch = internal global i32 0, align 4
@hf_ulmap_anchor_bs_switch_reduced_cid = internal global i32 0, align 4
@hf_ulmap_anchor_bs_switch_action_code = internal global i32 0, align 4
@hf_ulmap_anchor_bs_switch_action_time = internal global i32 0, align 4
@hf_ulmap_anchor_bs_switch_temp_bs_id = internal global i32 0, align 4
@hf_ulmap_anchor_bs_switch_ak_change_indicator = internal global i32 0, align 4
@hf_ulmap_anchor_bs_switch_cqich_allocation_indicator = internal global i32 0, align 4
@hf_ulmap_anchor_bs_switch_feedback_channel_offset = internal global i32 0, align 4
@hf_ulmap_anchor_bs_switch_cqich_id = internal global i32 0, align 4
@hf_ulmap_anchor_bs_switch_period = internal global i32 0, align 4
@hf_ulmap_anchor_bs_switch_frame_offset = internal global i32 0, align 4
@hf_ulmap_anchor_bs_switch_duration = internal global i32 0, align 4
@hf_ulmap_anchor_bs_switch_mimo_permutation_feedback_code = internal global i32 0, align 4
@ett_302i = internal global i32 0, align 4
@.str.523 = private unnamed_addr constant [21 x i8] c"n/a (size == 0 bits)\00", align 1
@.str.524 = private unnamed_addr constant [13 x i8] c"%d (%d bits)\00", align 1
@.str.525 = private unnamed_addr constant [8 x i8] c"%d bits\00", align 1
@.str.528 = private unnamed_addr constant [20 x i8] c"Anchor_BS_switch_IE\00", align 1

; Function Attrs: null_pointer_is_valid sspstrong uwtable
define internal i32 @Anchor_BS_switch_IE(ptr noundef %0, i32 noundef %1, i32 noundef %2, ptr noundef %3) #1 {
  %5 = alloca ptr, align 8
  %6 = alloca i32, align 4
  %7 = alloca i32, align 4
  %8 = alloca ptr, align 8
  %9 = alloca i32, align 4
  %10 = alloca i32, align 4
  %11 = alloca ptr, align 8
  %12 = alloca i32, align 4
  %13 = alloca i32, align 4
  %14 = alloca i32, align 4
  %15 = alloca i32, align 4
  %16 = alloca i32, align 4
  store ptr %0, ptr %5, align 8
  store i32 %1, ptr %6, align 4
  store i32 %2, ptr %7, align 4
  store ptr %3, ptr %8, align 8
  call void @llvm.lifetime.start.p0(i64 4, ptr %9) #5
  call void @llvm.lifetime.start.p0(i64 4, ptr %10) #5
  call void @llvm.lifetime.start.p0(i64 8, ptr %11) #5
  call void @llvm.lifetime.start.p0(i64 4, ptr %12) #5
  call void @llvm.lifetime.start.p0(i64 4, ptr %13) #5
  call void @llvm.lifetime.start.p0(i64 4, ptr %14) #5
  call void @llvm.lifetime.start.p0(i64 4, ptr %15) #5
  call void @llvm.lifetime.start.p0(i64 4, ptr %16) #5
  %17 = load i32, ptr %6, align 4
  %18 = mul i32 %17, 4
  store i32 %18, ptr %9, align 4
  %19 = load ptr, ptr %5, align 8
  %20 = load ptr, ptr %8, align 8
  %21 = load i32, ptr %6, align 4
  %22 = sdiv i32 %21, 2
  %23 = load i32, ptr %6, align 4
  %24 = and i32 %23, 1
  %25 = add i32 1, %24
  %26 = load i32, ptr %7, align 4
  %27 = add i32 %25, %26
  %28 = sdiv i32 %27, 2
  %29 = load i32, ptr @ett_302i, align 4
  %30 = call ptr @proto_tree_add_subtree(ptr noundef %19, ptr noundef %20, i32 noundef %22, i32 noundef %28, i32 noundef %29, ptr noundef null, ptr noundef @.str.528)
  store ptr %30, ptr %11, align 8
  %31 = load ptr, ptr %11, align 8
  %32 = load i32, ptr @hf_ulmap_anchor_bs_switch_extended_2_uiuc, align 4
  %33 = load ptr, ptr %8, align 8
  %34 = load i32, ptr %9, align 4
  %35 = call ptr @proto_tree_add_bits_item(ptr noundef %31, i32 noundef %32, ptr noundef %33, i32 noundef %34, i32 noundef 4, i32 noundef 0)
  %36 = load i32, ptr %9, align 4
  %37 = add i32 %36, 4
  store i32 %37, ptr %9, align 4
  %38 = load ptr, ptr %11, align 8
  %39 = load i32, ptr @hf_ulmap_anchor_bs_switch_length, align 4
  %40 = load ptr, ptr %8, align 8
  %41 = load i32, ptr %9, align 4
  %42 = call ptr @proto_tree_add_bits_item(ptr noundef %38, i32 noundef %39, ptr noundef %40, i32 noundef %41, i32 noundef 8, i32 noundef 0)
  %43 = load i32, ptr %9, align 4
  %44 = add i32 %43, 8
  store i32 %44, ptr %9, align 4
  br label %45

45:                                               ; preds = %4
  %46 = load ptr, ptr %8, align 8
  %47 = load i32, ptr %9, align 4
  %48 = sdiv i32 %47, 8
  %49 = call zeroext i16 @tvb_get_ntohs(ptr noundef %46, i32 noundef %48)
  %50 = zext i16 %49 to i32
  %51 = load i32, ptr %9, align 4
  %52 = srem i32 %51, 8
  %53 = sub i32 16, %52
  %54 = sub i32 %53, 4
  %55 = ashr i32 %50, %54
  %56 = and i32 %55, 15
  store i32 %56, ptr %12, align 4
  %57 = load ptr, ptr %11, align 8
  %58 = load i32, ptr @hf_ulmap_anchor_bs_switch_n_anchor_bs_switch, align 4
  %59 = load ptr, ptr %8, align 8
  %60 = load i32, ptr %9, align 4
  %61 = call ptr @proto_tree_add_bits_item(ptr noundef %57, i32 noundef %58, ptr noundef %59, i32 noundef %60, i32 noundef 4, i32 noundef 0)
  %62 = load i32, ptr %9, align 4
  %63 = add i32 %62, 4
  store i32 %63, ptr %9, align 4
  br label %64

64:                                               ; preds = %45
  br label %65

65:                                               ; preds = %64
  store i32 0, ptr %16, align 4
  br label %66

66:                                               ; preds = %286, %65
  %67 = load i32, ptr %16, align 4
  %68 = load i32, ptr %12, align 4
  %69 = icmp slt i32 %67, %68
  br i1 %69, label %70, label %289

70:                                               ; preds = %66
  %71 = load ptr, ptr %11, align 8
  %72 = load i32, ptr @hf_ulmap_anchor_bs_switch_reduced_cid, align 4
  %73 = load ptr, ptr %8, align 8
  %74 = load i32, ptr %9, align 4
  %75 = call ptr @proto_tree_add_bits_item(ptr noundef %71, i32 noundef %72, ptr noundef %73, i32 noundef %74, i32 noundef 12, i32 noundef 0)
  %76 = load i32, ptr %9, align 4
  %77 = add i32 %76, 12
  store i32 %77, ptr %9, align 4
  br label %78

78:                                               ; preds = %70
  %79 = load ptr, ptr %8, align 8
  %80 = load i32, ptr %9, align 4
  %81 = sdiv i32 %80, 8
  %82 = call zeroext i16 @tvb_get_ntohs(ptr noundef %79, i32 noundef %81)
  %83 = zext i16 %82 to i32
  %84 = load i32, ptr %9, align 4
  %85 = srem i32 %84, 8
  %86 = sub i32 16, %85
  %87 = sub i32 %86, 2
  %88 = ashr i32 %83, %87
  %89 = and i32 %88, 3
  store i32 %89, ptr %13, align 4
  %90 = load ptr, ptr %11, align 8
  %91 = load i32, ptr @hf_ulmap_anchor_bs_switch_action_code, align 4
  %92 = load ptr, ptr %8, align 8
  %93 = load i32, ptr %9, align 4
  %94 = call ptr @proto_tree_add_bits_item(ptr noundef %90, i32 noundef %91, ptr noundef %92, i32 noundef %93, i32 noundef 2, i32 noundef 0)
  %95 = load i32, ptr %9, align 4
  %96 = add i32 %95, 2
  store i32 %96, ptr %9, align 4
  br label %97

97:                                               ; preds = %78
  br label %98

98:                                               ; preds = %97
  %99 = load i32, ptr %13, align 4
  %100 = icmp eq i32 %99, 1
  br i1 %100, label %101, label %123

101:                                              ; preds = %98
  %102 = load ptr, ptr %11, align 8
  %103 = load i32, ptr @hf_ulmap_anchor_bs_switch_action_time, align 4
  %104 = load ptr, ptr %8, align 8
  %105 = load i32, ptr %9, align 4
  %106 = call ptr @proto_tree_add_bits_item(ptr noundef %102, i32 noundef %103, ptr noundef %104, i32 noundef %105, i32 noundef 3, i32 noundef 0)
  %107 = load i32, ptr %9, align 4
  %108 = add i32 %107, 3
  store i32 %108, ptr %9, align 4
  %109 = load ptr, ptr %11, align 8
  %110 = load i32, ptr @hf_ulmap_anchor_bs_switch_temp_bs_id, align 4
  %111 = load ptr, ptr %8, align 8
  %112 = load i32, ptr %9, align 4
  %113 = call ptr @proto_tree_add_bits_item(ptr noundef %109, i32 noundef %110, ptr noundef %111, i32 noundef %112, i32 noundef 3, i32 noundef 0)
  %114 = load i32, ptr %9, align 4
  %115 = add i32 %114, 3
  store i32 %115, ptr %9, align 4
  %116 = load ptr, ptr %11, align 8
  %117 = load i32, ptr @hf_ulmap_reserved_uint, align 4
  %118 = load ptr, ptr %8, align 8
  %119 = load i32, ptr %9, align 4
  %120 = call ptr @proto_tree_add_bits_item(ptr noundef %116, i32 noundef %117, ptr noundef %118, i32 noundef %119, i32 noundef 2, i32 noundef 0)
  %121 = load i32, ptr %9, align 4
  %122 = add i32 %121, 2
  store i32 %122, ptr %9, align 4
  br label %123

123:                                              ; preds = %101, %98
  %124 = load i32, ptr %13, align 4
  %125 = icmp eq i32 %124, 0
  br i1 %125, label %129, label %126

126:                                              ; preds = %123
  %127 = load i32, ptr %13, align 4
  %128 = icmp eq i32 %127, 1
  br i1 %128, label %129, label %277

129:                                              ; preds = %126, %123
  %130 = load ptr, ptr %11, align 8
  %131 = load i32, ptr @hf_ulmap_anchor_bs_switch_ak_change_indicator, align 4
  %132 = load ptr, ptr %8, align 8
  %133 = load i32, ptr %9, align 4
  %134 = call ptr @proto_tree_add_bits_item(ptr noundef %130, i32 noundef %131, ptr noundef %132, i32 noundef %133, i32 noundef 1, i32 noundef 0)
  %135 = load i32, ptr %9, align 4
  %136 = add i32 %135, 1
  store i32 %136, ptr %9, align 4
  br label %137

137:                                              ; preds = %129
  %138 = load ptr, ptr %8, align 8
  %139 = load i32, ptr %9, align 4
  %140 = sdiv i32 %139, 8
  %141 = call zeroext i8 @tvb_get_uint8(ptr noundef %138, i32 noundef %140)
  %142 = zext i8 %141 to i32
  %143 = load i32, ptr %9, align 4
  %144 = srem i32 %143, 8
  %145 = sub i32 8, %144
  %146 = sub i32 %145, 1
  %147 = ashr i32 %142, %146
  %148 = and i32 %147, 1
  store i32 %148, ptr %14, align 4
  %149 = load ptr, ptr %11, align 8
  %150 = load i32, ptr @hf_ulmap_anchor_bs_switch_cqich_allocation_indicator, align 4
  %151 = load ptr, ptr %8, align 8
  %152 = load i32, ptr %9, align 4
  %153 = call ptr @proto_tree_add_bits_item(ptr noundef %149, i32 noundef %150, ptr noundef %151, i32 noundef %152, i32 noundef 1, i32 noundef 0)
  %154 = load i32, ptr %9, align 4
  %155 = add i32 %154, 1
  store i32 %155, ptr %9, align 4
  br label %156

156:                                              ; preds = %137
  br label %157

157:                                              ; preds = %156
  %158 = load i32, ptr %14, align 4
  %159 = icmp eq i32 %158, 1
  br i1 %159, label %160, label %276

160:                                              ; preds = %157
  %161 = load i32, ptr @cqich_id_size, align 4
  %162 = icmp eq i32 %161, 0
  br i1 %162, label %163, label %177

163:                                              ; preds = %160
  %164 = load ptr, ptr %11, align 8
  %165 = load i32, ptr @hf_ulmap_anchor_bs_switch_cqich_id, align 4
  %166 = load ptr, ptr %8, align 8
  %167 = load i32, ptr %9, align 4
  %168 = sdiv i32 %167, 8
  %169 = load i32, ptr %9, align 4
  %170 = srem i32 %169, 8
  %171 = add i32 %170, 1
  %172 = sub i32 %171, 1
  %173 = sdiv i32 %172, 8
  %174 = add i32 1, %173
  %175 = load i32, ptr @cqich_id_size, align 4
  %176 = call ptr (ptr, i32, ptr, i32, i32, i32, ptr, ...) @proto_tree_add_uint_format_value(ptr noundef %164, i32 noundef %165, ptr noundef %166, i32 noundef %168, i32 noundef %174, i32 noundef %175, ptr noundef @.str.523)
  br label %212

177:                                              ; preds = %160
  %178 = load ptr, ptr %8, align 8
  %179 = load i32, ptr %9, align 4
  %180 = sdiv i32 %179, 8
  %181 = call zeroext i16 @tvb_get_ntohs(ptr noundef %178, i32 noundef %180)
  %182 = zext i16 %181 to i32
  %183 = load i32, ptr %9, align 4
  %184 = srem i32 %183, 8
  %185 = sub i32 16, %184
  %186 = load i32, ptr @cqich_id_size, align 4
  %187 = sub i32 %185, %186
  %188 = ashr i32 %182, %187
  %189 = load i32, ptr @cqich_id_size, align 4
  %190 = sub i32 16, %189
  %191 = ashr i32 65535, %190
  %192 = and i32 %188, %191
  store i32 %192, ptr %10, align 4
  %193 = load ptr, ptr %11, align 8
  %194 = load i32, ptr @hf_ulmap_anchor_bs_switch_cqich_id, align 4
  %195 = load ptr, ptr %8, align 8
  %196 = load i32, ptr %9, align 4
  %197 = sdiv i32 %196, 8
  %198 = load i32, ptr %9, align 4
  %199 = srem i32 %198, 8
  %200 = load i32, ptr @cqich_id_size, align 4
  %201 = add i32 %199, %200
  %202 = sub i32 %201, 1
  %203 = udiv i32 %202, 8
  %204 = add i32 1, %203
  %205 = load i32, ptr %10, align 4
  %206 = load i32, ptr %10, align 4
  %207 = load i32, ptr @cqich_id_size, align 4
  %208 = call ptr (ptr, i32, ptr, i32, i32, i32, ptr, ...) @proto_tree_add_uint_format_value(ptr noundef %193, i32 noundef %194, ptr noundef %195, i32 noundef %197, i32 noundef %204, i32 noundef %205, ptr noundef @.str.524, i32 noundef %206, i32 noundef %207)
  %209 = load i32, ptr @cqich_id_size, align 4
  %210 = load i32, ptr %9, align 4
  %211 = add i32 %210, %209
  store i32 %211, ptr %9, align 4
  br label %212

212:                                              ; preds = %177, %163
  %213 = load ptr, ptr %11, align 8
  %214 = load i32, ptr @hf_ulmap_anchor_bs_switch_feedback_channel_offset, align 4
  %215 = load ptr, ptr %8, align 8
  %216 = load i32, ptr %9, align 4
  %217 = call ptr @proto_tree_add_bits_item(ptr noundef %213, i32 noundef %214, ptr noundef %215, i32 noundef %216, i32 noundef 6, i32 noundef 0)
  %218 = load i32, ptr %9, align 4
  %219 = add i32 %218, 6
  store i32 %219, ptr %9, align 4
  %220 = load ptr, ptr %11, align 8
  %221 = load i32, ptr @hf_ulmap_anchor_bs_switch_period, align 4
  %222 = load ptr, ptr %8, align 8
  %223 = load i32, ptr %9, align 4
  %224 = call ptr @proto_tree_add_bits_item(ptr noundef %220, i32 noundef %221, ptr noundef %222, i32 noundef %223, i32 noundef 2, i32 noundef 0)
  %225 = load i32, ptr %9, align 4
  %226 = add i32 %225, 2
  store i32 %226, ptr %9, align 4
  %227 = load ptr, ptr %11, align 8
  %228 = load i32, ptr @hf_ulmap_anchor_bs_switch_frame_offset, align 4
  %229 = load ptr, ptr %8, align 8
  %230 = load i32, ptr %9, align 4
  %231 = call ptr @proto_tree_add_bits_item(ptr noundef %227, i32 noundef %228, ptr noundef %229, i32 noundef %230, i32 noundef 3, i32 noundef 0)
  %232 = load i32, ptr %9, align 4
  %233 = add i32 %232, 3
  store i32 %233, ptr %9, align 4
  %234 = load ptr, ptr %11, align 8
  %235 = load i32, ptr @hf_ulmap_anchor_bs_switch_duration, align 4
  %236 = load ptr, ptr %8, align 8
  %237 = load i32, ptr %9, align 4
  %238 = call ptr @proto_tree_add_bits_item(ptr noundef %234, i32 noundef %235, ptr noundef %236, i32 noundef %237, i32 noundef 3, i32 noundef 0)
  %239 = load i32, ptr %9, align 4
  %240 = add i32 %239, 3
  store i32 %240, ptr %9, align 4
  %241 = load ptr, ptr %11, align 8
  %242 = load i32, ptr @hf_ulmap_anchor_bs_switch_mimo_permutation_feedback_code, align 4
  %243 = load ptr, ptr %8, align 8
  %244 = load i32, ptr %9, align 4
  %245 = call ptr @proto_tree_add_bits_item(ptr noundef %241, i32 noundef %242, ptr noundef %243, i32 noundef %244, i32 noundef 2, i32 noundef 0)
  %246 = load i32, ptr %9, align 4
  %247 = add i32 %246, 2
  store i32 %247, ptr %9, align 4
  %248 = load i32, ptr %9, align 4
  %249 = srem i32 %248, 8
  %250 = icmp ne i32 %249, 0
  br i1 %250, label %251, label %255

251:                                              ; preds = %212
  %252 = load i32, ptr %9, align 4
  %253 = srem i32 %252, 8
  %254 = sub i32 8, %253
  br label %256

255:                                              ; preds = %212
  br label %256

256:                                              ; preds = %255, %251
  %257 = phi i32 [ %254, %251 ], [ 0, %255 ]
  store i32 %257, ptr %15, align 4
  %258 = load i32, ptr %15, align 4
  %259 = icmp ne i32 %258, 0
  br i1 %259, label %260, label %275

260:                                              ; preds = %256
  %261 = load ptr, ptr %11, align 8
  %262 = load i32, ptr @hf_ulmap_reserved, align 4
  %263 = load ptr, ptr %8, align 8
  %264 = load i32, ptr %9, align 4
  %265 = sdiv i32 %264, 8
  %266 = load i32, ptr %9, align 4
  %267 = srem i32 %266, 8
  %268 = load i32, ptr %15, align 4
  %269 = add i32 %267, %268
  %270 = sub i32 %269, 1
  %271 = sdiv i32 %270, 8
  %272 = add i32 1, %271
  %273 = load i32, ptr %15, align 4
  %274 = call ptr (ptr, i32, ptr, i32, i32, i32, ptr, ...) @proto_tree_add_uint_format_value(ptr noundef %261, i32 noundef %262, ptr noundef %263, i32 noundef %265, i32 noundef %272, i32 noundef 0, ptr noundef @.str.525, i32 noundef %273)
  br label %275

275:                                              ; preds = %260, %256
  br label %276

276:                                              ; preds = %275, %157
  br label %285

277:                                              ; preds = %126
  %278 = load ptr, ptr %11, align 8
  %279 = load i32, ptr @hf_ulmap_reserved_uint, align 4
  %280 = load ptr, ptr %8, align 8
  %281 = load i32, ptr %9, align 4
  %282 = call ptr @proto_tree_add_bits_item(ptr noundef %278, i32 noundef %279, ptr noundef %280, i32 noundef %281, i32 noundef 2, i32 noundef 0)
  %283 = load i32, ptr %9, align 4
  %284 = add i32 %283, 2
  store i32 %284, ptr %9, align 4
  br label %285

285:                                              ; preds = %277, %276
  br label %286

286:                                              ; preds = %285
  %287 = load i32, ptr %16, align 4
  %288 = add i32 %287, 1
  store i32 %288, ptr %16, align 4
  br label %66, !llvm.loop !8

289:                                              ; preds = %66
  %290 = load ptr, ptr %11, align 8
  %291 = load i32, ptr @hf_ulmap_reserved_uint, align 4
  %292 = load ptr, ptr %8, align 8
  %293 = load i32, ptr %9, align 4
  %294 = call ptr @proto_tree_add_bits_item(ptr noundef %290, i32 noundef %291, ptr noundef %292, i32 noundef %293, i32 noundef 4, i32 noundef 0)
  %295 = load i32, ptr %9, align 4
  %296 = add i32 %295, 4
  store i32 %296, ptr %9, align 4
  %297 = load i32, ptr %9, align 4
  %298 = sdiv i32 %297, 4
  call void @llvm.lifetime.end.p0(i64 4, ptr %16) #5
  call void @llvm.lifetime.end.p0(i64 4, ptr %15) #5
  call void @llvm.lifetime.end.p0(i64 4, ptr %14) #5
  call void @llvm.lifetime.end.p0(i64 4, ptr %13) #5
  call void @llvm.lifetime.end.p0(i64 4, ptr %12) #5
  call void @llvm.lifetime.end.p0(i64 8, ptr %11) #5
  call void @llvm.lifetime.end.p0(i64 4, ptr %10) #5
  call void @llvm.lifetime.end.p0(i64 4, ptr %9) #5
  ret i32 %298
}