; Function Attrs: null_pointer_is_valid sspstrong uwtable
define internal fastcc noundef range(i32 -536870912, 536870912) i32 @Anchor_BS_switch_IE(ptr noundef %0, i32 noundef %1, i32 noundef range(i32 3, 514) %2, ptr noundef %3) unnamed_addr #1 {
  %5 = shl i32 %1, 2
  %6 = sdiv i32 %1, 2
  %7 = and i32 %1, 1
  %8 = add nuw nsw i32 %7, 1
  %9 = add nuw nsw i32 %8, %2
  %10 = lshr i32 %9, 1
  %11 = load i32, ptr @ett_302i, align 4
  %12 = tail call ptr @proto_tree_add_subtree(ptr noundef %0, ptr noundef %3, i32 noundef %6, i32 noundef %10, i32 noundef %11, ptr noundef null, ptr noundef nonnull @.str.528)
  %13 = load i32, ptr @hf_ulmap_anchor_bs_switch_extended_2_uiuc, align 4
  %14 = tail call ptr @proto_tree_add_bits_item(ptr noundef %12, i32 noundef %13, ptr noundef %3, i32 noundef %5, i32 noundef 4, i32 noundef 0)
  %15 = add i32 %5, 4
  %16 = load i32, ptr @hf_ulmap_anchor_bs_switch_length, align 4
  %17 = tail call ptr @proto_tree_add_bits_item(ptr noundef %12, i32 noundef %16, ptr noundef %3, i32 noundef %15, i32 noundef 8, i32 noundef 0)
  %18 = add i32 %5, 12
  %19 = sdiv i32 %18, 8
  %20 = tail call zeroext i16 @tvb_get_ntohs(ptr noundef %3, i32 noundef %19)
  %21 = zext i16 %20 to i32
  %22 = srem i32 %18, 8
  %23 = sub nsw i32 12, %22
  %24 = lshr i32 %21, %23
  %25 = and i32 %24, 15
  %26 = load i32, ptr @hf_ulmap_anchor_bs_switch_n_anchor_bs_switch, align 4
  %27 = tail call ptr @proto_tree_add_bits_item(ptr noundef %12, i32 noundef %26, ptr noundef %3, i32 noundef %18, i32 noundef 4, i32 noundef 0)
  %28 = add i32 %5, 16
  %.not126 = icmp eq i32 %25, 0
  br i1 %.not126, label %._crit_edge, label %.lr.ph

.lr.ph:                                           ; preds = %4, %117
  %.0125 = phi i32 [ %118, %117 ], [ 0, %4 ]
  %.0114124 = phi i32 [ %.3, %117 ], [ %28, %4 ]
  %29 = load i32, ptr @hf_ulmap_anchor_bs_switch_reduced_cid, align 4
  %30 = tail call ptr @proto_tree_add_bits_item(ptr noundef %12, i32 noundef %29, ptr noundef %3, i32 noundef %.0114124, i32 noundef 12, i32 noundef 0)
  %31 = add i32 %.0114124, 12
  %32 = sdiv i32 %31, 8
  %33 = tail call zeroext i16 @tvb_get_ntohs(ptr noundef %3, i32 noundef %32)
  %34 = zext i16 %33 to i32
  %35 = srem i32 %31, 8
  %36 = sub nsw i32 14, %35
  %37 = lshr i32 %34, %36
  %38 = and i32 %37, 3
  %39 = load i32, ptr @hf_ulmap_anchor_bs_switch_action_code, align 4
  %40 = tail call ptr @proto_tree_add_bits_item(ptr noundef %12, i32 noundef %39, ptr noundef %3, i32 noundef %31, i32 noundef 2, i32 noundef 0)
  %41 = add i32 %.0114124, 14
  switch i32 %38, label %113 [
    i32 1, label %.thread
    i32 0, label %51
  ]

.thread:                                          ; preds = %.lr.ph
  %42 = load i32, ptr @hf_ulmap_anchor_bs_switch_action_time, align 4
  %43 = tail call ptr @proto_tree_add_bits_item(ptr noundef %12, i32 noundef %42, ptr noundef %3, i32 noundef %41, i32 noundef 3, i32 noundef 0)
  %44 = add i32 %.0114124, 17
  %45 = load i32, ptr @hf_ulmap_anchor_bs_switch_temp_bs_id, align 4
  %46 = tail call ptr @proto_tree_add_bits_item(ptr noundef %12, i32 noundef %45, ptr noundef %3, i32 noundef %44, i32 noundef 3, i32 noundef 0)
  %47 = add i32 %.0114124, 20
  %48 = load i32, ptr @hf_ulmap_reserved_uint, align 4
  %49 = tail call ptr @proto_tree_add_bits_item(ptr noundef %12, i32 noundef %48, ptr noundef %3, i32 noundef %47, i32 noundef 2, i32 noundef 0)
  %50 = add i32 %.0114124, 22
  br label %51

51:                                               ; preds = %.lr.ph, %.thread
  %.1122 = phi i32 [ %50, %.thread ], [ %41, %.lr.ph ]
  %52 = load i32, ptr @hf_ulmap_anchor_bs_switch_ak_change_indicator, align 4
  %53 = tail call ptr @proto_tree_add_bits_item(ptr noundef %12, i32 noundef %52, ptr noundef %3, i32 noundef %.1122, i32 noundef 1, i32 noundef 0)
  %54 = add i32 %.1122, 1
  %55 = sdiv i32 %54, 8
  %56 = tail call zeroext i8 @tvb_get_uint8(ptr noundef %3, i32 noundef %55)
  %57 = zext i8 %56 to i32
  %58 = srem i32 %54, 8
  %59 = sub nsw i32 7, %58
  %60 = load i32, ptr @hf_ulmap_anchor_bs_switch_cqich_allocation_indicator, align 4
  %61 = tail call ptr @proto_tree_add_bits_item(ptr noundef %12, i32 noundef %60, ptr noundef %3, i32 noundef %54, i32 noundef 1, i32 noundef 0)
  %62 = add i32 %.1122, 2
  %63 = shl nuw nsw i32 1, %59
  %64 = and i32 %63, %57
  %.not = icmp eq i32 %64, 0
  br i1 %.not, label %117, label %65

65:                                               ; preds = %51
  %66 = load i32, ptr @cqich_id_size, align 4
  %67 = icmp eq i32 %66, 0
  br i1 %67, label %68, label %72

68:                                               ; preds = %65
  %69 = load i32, ptr @hf_ulmap_anchor_bs_switch_cqich_id, align 4
  %70 = sdiv i32 %62, 8
  %71 = tail call ptr (ptr, i32, ptr, i32, i32, i32, ptr, ...) @proto_tree_add_uint_format_value(ptr noundef %12, i32 noundef %69, ptr noundef %3, i32 noundef %70, i32 noundef 1, i32 noundef 0, ptr noundef nonnull @.str.523)
  br label %91

72:                                               ; preds = %65
  %73 = sdiv i32 %62, 8
  %74 = tail call zeroext i16 @tvb_get_ntohs(ptr noundef %3, i32 noundef %73)
  %75 = zext i16 %74 to i32
  %76 = srem i32 %62, 8
  %77 = load i32, ptr @cqich_id_size, align 4
  %78 = add i32 %77, %76
  %79 = sub i32 16, %78
  %80 = lshr i32 %75, %79
  %81 = sub i32 16, %77
  %82 = lshr i32 65535, %81
  %83 = and i32 %80, %82
  %84 = load i32, ptr @hf_ulmap_anchor_bs_switch_cqich_id, align 4
  %85 = add i32 %78, -1
  %86 = lshr i32 %85, 3
  %87 = add nuw nsw i32 %86, 1
  %88 = tail call ptr (ptr, i32, ptr, i32, i32, i32, ptr, ...) @proto_tree_add_uint_format_value(ptr noundef %12, i32 noundef %84, ptr noundef %3, i32 noundef %73, i32 noundef %87, i32 noundef %83, ptr noundef nonnull @.str.524, i32 noundef %83, i32 noundef %77)
  %89 = load i32, ptr @cqich_id_size, align 4
  %90 = add i32 %89, %62
  br label %91

91:                                               ; preds = %72, %68
  %.2 = phi i32 [ %62, %68 ], [ %90, %72 ]
  %92 = load i32, ptr @hf_ulmap_anchor_bs_switch_feedback_channel_offset, align 4
  %93 = tail call ptr @proto_tree_add_bits_item(ptr noundef %12, i32 noundef %92, ptr noundef %3, i32 noundef %.2, i32 noundef 6, i32 noundef 0)
  %94 = add i32 %.2, 6
  %95 = load i32, ptr @hf_ulmap_anchor_bs_switch_period, align 4
  %96 = tail call ptr @proto_tree_add_bits_item(ptr noundef %12, i32 noundef %95, ptr noundef %3, i32 noundef %94, i32 noundef 2, i32 noundef 0)
  %97 = add i32 %.2, 8
  %98 = load i32, ptr @hf_ulmap_anchor_bs_switch_frame_offset, align 4
  %99 = tail call ptr @proto_tree_add_bits_item(ptr noundef %12, i32 noundef %98, ptr noundef %3, i32 noundef %97, i32 noundef 3, i32 noundef 0)
  %100 = add i32 %.2, 11
  %101 = load i32, ptr @hf_ulmap_anchor_bs_switch_duration, align 4
  %102 = tail call ptr @proto_tree_add_bits_item(ptr noundef %12, i32 noundef %101, ptr noundef %3, i32 noundef %100, i32 noundef 3, i32 noundef 0)
  %103 = add i32 %.2, 14
  %104 = load i32, ptr @hf_ulmap_anchor_bs_switch_mimo_permutation_feedback_code, align 4
  %105 = tail call ptr @proto_tree_add_bits_item(ptr noundef %12, i32 noundef %104, ptr noundef %3, i32 noundef %103, i32 noundef 2, i32 noundef 0)
  %106 = add i32 %.2, 16
  %107 = srem i32 %106, 8
  %108 = sdiv i32 %106, 8
  %.not118 = icmp eq i32 %107, 0
  br i1 %.not118, label %117, label %109

109:                                              ; preds = %91
  %110 = sub nsw i32 8, %107
  %111 = load i32, ptr @hf_ulmap_reserved, align 4
  %112 = tail call ptr (ptr, i32, ptr, i32, i32, i32, ptr, ...) @proto_tree_add_uint_format_value(ptr noundef %12, i32 noundef %111, ptr noundef %3, i32 noundef %108, i32 noundef 1, i32 noundef 0, ptr noundef nonnull @.str.525, i32 noundef %110)
  br label %117

113:                                              ; preds = %.lr.ph
  %114 = load i32, ptr @hf_ulmap_reserved_uint, align 4
  %115 = tail call ptr @proto_tree_add_bits_item(ptr noundef %12, i32 noundef %114, ptr noundef %3, i32 noundef %41, i32 noundef 2, i32 noundef 0)
  %116 = add i32 %.0114124, 16
  br label %117

117:                                              ; preds = %113, %91, %109, %51
  %.3 = phi i32 [ %106, %109 ], [ %106, %91 ], [ %62, %51 ], [ %116, %113 ]
  %118 = add nuw nsw i32 %.0125, 1
  %exitcond.not = icmp eq i32 %118, %25
  br i1 %exitcond.not, label %._crit_edge, label %.lr.ph, !llvm.loop !8

._crit_edge:                                      ; preds = %117, %4
  %.0114.lcssa = phi i32 [ %28, %4 ], [ %.3, %117 ]
  %119 = load i32, ptr @hf_ulmap_reserved_uint, align 4
  %120 = tail call ptr @proto_tree_add_bits_item(ptr noundef %12, i32 noundef %119, ptr noundef %3, i32 noundef %.0114.lcssa, i32 noundef 4, i32 noundef 0)
  %121 = add i32 %.0114.lcssa, 4
  %122 = sdiv i32 %121, 4
  ret i32 %122
}